target datalayout = "e-m:e-p270:32:32-p271:32:32-p272:64:64-i64:64-i128:128-f80:128-n8:16:32:64-S128"
target triple = "x86_64-unknown-linux-gnu"

%"struct.icu_75::number::impl::ParsedPatternInfo" = type <{ %"class.icu_75::number::impl::AffixPatternProvider", %"class.icu_75::UnicodeString", %"struct.icu_75::number::impl::ParsedSubpatternInfo", %"struct.icu_75::number::impl::ParsedSubpatternInfo", %"struct.icu_75::number::impl::ParsedPatternInfo::ParserState", ptr, i8, [7 x i8] }>
%"class.icu_75::number::impl::AffixPatternProvider" = type { ptr }
%"class.icu_75::UnicodeString" = type { %"class.icu_75::Replaceable", %"union.icu_75::UnicodeString::StackBufferOrFields" }
%"class.icu_75::Replaceable" = type { %"class.icu_75::UObject" }
%"class.icu_75::UObject" = type { ptr }
%"union.icu_75::UnicodeString::StackBufferOrFields" = type { %struct.anon.0, [32 x i8] }
%struct.anon.0 = type { i16, i32, i32, ptr }
%"struct.icu_75::number::impl::ParsedSubpatternInfo" = type { i64, i32, i32, i32, i32, i32, i32, i32, i32, i8, i32, i8, i32, %"class.icu_75::number::impl::DecimalQuantity", i8, i32, i8, i8, i8, i8, i8, i8, %"struct.icu_75::number::impl::Endpoints", %"struct.icu_75::number::impl::Endpoints", %"struct.icu_75::number::impl::Endpoints" }
%"class.icu_75::number::impl::DecimalQuantity" = type <{ %"class.icu_75::IFixedDecimal", i8, [3 x i8], i32, i32, i8, i8, [2 x i8], double, i32, i32, i32, i32, %union.anon, i8, i8, [6 x i8] }>
%"class.icu_75::IFixedDecimal" = type { ptr }
%union.anon = type { %struct.anon.1 }
%struct.anon.1 = type { ptr, i32 }
%"struct.icu_75::number::impl::Endpoints" = type { i32, i32 }
%"struct.icu_75::number::impl::ParsedPatternInfo::ParserState" = type <{ ptr, i32, [4 x i8] }>

; Function Attrs: mustprogress nounwind uwtable
define internal noundef signext i8 @_ZL9U_FAILURE10UErrorCode(i32 noundef %code) #0 {
entry:
  %code.addr = alloca i32, align 4
  store i32 %code, ptr %code.addr, align 4
  %0 = load i32, ptr %code.addr, align 4
  %cmp = icmp sgt i32 %0, 0
  %conv = zext i1 %cmp to i8
  ret i8 %conv
}

; Function Attrs: mustprogress uwtable
define void @_ZN6icu_756number4impl17ParsedPatternInfo17consumeSubpatternER10UErrorCode(ptr noundef nonnull align 8 dereferenceable(433) %this, ptr noundef nonnull align 4 dereferenceable(4) %status) #1 align 2 {
entry:
  %this.addr = alloca ptr, align 8
  %status.addr = alloca ptr, align 8
  store ptr %this, ptr %this.addr, align 8
  store ptr %status, ptr %status.addr, align 8
  %this1 = load ptr, ptr %this.addr, align 8
  %0 = load ptr, ptr %status.addr, align 8
  call void @_ZN6icu_756number4impl17ParsedPatternInfo14consumePaddingE24UNumberFormatPadPositionR10UErrorCode(ptr noundef nonnull align 8 dereferenceable(433) %this1, i32 noundef 0, ptr noundef nonnull align 4 dereferenceable(4) %0)
  %1 = load ptr, ptr %status.addr, align 8
  %2 = load i32, ptr %1, align 4
  %call = call noundef signext i8 @_ZL9U_FAILURE10UErrorCode(i32 noundef %2)
  %tobool = icmp ne i8 %call, 0
  br i1 %tobool, label %if.then, label %if.end

if.then:                                          ; preds = %entry
  br label %if.end30

if.end:                                           ; preds = %entry
  %currentSubpattern = getelementptr inbounds %"struct.icu_75::number::impl::ParsedPatternInfo", ptr %this1, i32 0, i32 5
  %3 = load ptr, ptr %currentSubpattern, align 8
  %prefixEndpoints = getelementptr inbounds %"struct.icu_75::number::impl::ParsedSubpatternInfo", ptr %3, i32 0, i32 22
  %4 = load ptr, ptr %status.addr, align 8
  call void @_ZN6icu_756number4impl17ParsedPatternInfo12consumeAffixERNS1_9EndpointsER10UErrorCode(ptr noundef nonnull align 8 dereferenceable(433) %this1, ptr noundef nonnull align 4 dereferenceable(8) %prefixEndpoints, ptr noundef nonnull align 4 dereferenceable(4) %4)
  %5 = load ptr, ptr %status.addr, align 8
  %6 = load i32, ptr %5, align 4
  %call2 = call noundef signext i8 @_ZL9U_FAILURE10UErrorCode(i32 noundef %6)
  %tobool3 = icmp ne i8 %call2, 0
  br i1 %tobool3, label %if.then4, label %if.end5

if.then4:                                         ; preds = %if.end
  br label %if.end30

if.end5:                                          ; preds = %if.end
  %7 = load ptr, ptr %status.addr, align 8
  call void @_ZN6icu_756number4impl17ParsedPatternInfo14consumePaddingE24UNumberFormatPadPositionR10UErrorCode(ptr noundef nonnull align 8 dereferenceable(433) %this1, i32 noundef 1, ptr noundef nonnull align 4 dereferenceable(4) %7)
  %8 = load ptr, ptr %status.addr, align 8
  %9 = load i32, ptr %8, align 4
  %call6 = call noundef signext i8 @_ZL9U_FAILURE10UErrorCode(i32 noundef %9)
  %tobool7 = icmp ne i8 %call6, 0
  br i1 %tobool7, label %if.then8, label %if.end9

if.then8:                                         ; preds = %if.end5
  br label %if.end30

if.end9:                                          ; preds = %if.end5
  %10 = load ptr, ptr %status.addr, align 8
  call void @_ZN6icu_756number4impl17ParsedPatternInfo13consumeFormatER10UErrorCode(ptr noundef nonnull align 8 dereferenceable(433) %this1, ptr noundef nonnull align 4 dereferenceable(4) %10)
  %11 = load ptr, ptr %status.addr, align 8
  %12 = load i32, ptr %11, align 4
  %call10 = call noundef signext i8 @_ZL9U_FAILURE10UErrorCode(i32 noundef %12)
  %tobool11 = icmp ne i8 %call10, 0
  br i1 %tobool11, label %if.then12, label %if.end13

if.then12:                                        ; preds = %if.end9
  br label %if.end30

if.end13:                                         ; preds = %if.end9
  %13 = load ptr, ptr %status.addr, align 8
  call void @_ZN6icu_756number4impl17ParsedPatternInfo15consumeExponentER10UErrorCode(ptr noundef nonnull align 8 dereferenceable(433) %this1, ptr noundef nonnull align 4 dereferenceable(4) %13)
  %14 = load ptr, ptr %status.addr, align 8
  %15 = load i32, ptr %14, align 4
  %call14 = call noundef signext i8 @_ZL9U_FAILURE10UErrorCode(i32 noundef %15)
  %tobool15 = icmp ne i8 %call14, 0
  br i1 %tobool15, label %if.then16, label %if.end17

if.then16:                                        ; preds = %if.end13
  br label %if.end30

if.end17:                                         ; preds = %if.end13
  %16 = load ptr, ptr %status.addr, align 8
  call void @_ZN6icu_756number4impl17ParsedPatternInfo14consumePaddingE24UNumberFormatPadPositionR10UErrorCode(ptr noundef nonnull align 8 dereferenceable(433) %this1, i32 noundef 2, ptr noundef nonnull align 4 dereferenceable(4) %16)
  %17 = load ptr, ptr %status.addr, align 8
  %18 = load i32, ptr %17, align 4
  %call18 = call noundef signext i8 @_ZL9U_FAILURE10UErrorCode(i32 noundef %18)
  %tobool19 = icmp ne i8 %call18, 0
  br i1 %tobool19, label %if.then20, label %if.end21

if.then20:                                        ; preds = %if.end17
  br label %if.end30

if.end21:                                         ; preds = %if.end17
  %currentSubpattern22 = getelementptr inbounds %"struct.icu_75::number::impl::ParsedPatternInfo", ptr %this1, i32 0, i32 5
  %19 = load ptr, ptr %currentSubpattern22, align 8
  %suffixEndpoints = getelementptr inbounds %"struct.icu_75::number::impl::ParsedSubpatternInfo", ptr %19, i32 0, i32 23
  %20 = load ptr, ptr %status.addr, align 8
  call void @_ZN6icu_756number4impl17ParsedPatternInfo12consumeAffixERNS1_9EndpointsER10UErrorCode(ptr noundef nonnull align 8 dereferenceable(433) %this1, ptr noundef nonnull align 4 dereferenceable(8) %suffixEndpoints, ptr noundef nonnull align 4 dereferenceable(4) %20)
  %21 = load ptr, ptr %status.addr, align 8
  %22 = load i32, ptr %21, align 4
  %call23 = call noundef signext i8 @_ZL9U_FAILURE10UErrorCode(i32 noundef %22)
  %tobool24 = icmp ne i8 %call23, 0
  br i1 %tobool24, label %if.then25, label %if.end26

if.then25:                                        ; preds = %if.end21
  br label %if.end30

if.end26:                                         ; preds = %if.end21
  %23 = load ptr, ptr %status.addr, align 8
  call void @_ZN6icu_756number4impl17ParsedPatternInfo14consumePaddingE24UNumberFormatPadPositionR10UErrorCode(ptr noundef nonnull align 8 dereferenceable(433) %this1, i32 noundef 3, ptr noundef nonnull align 4 dereferenceable(4) %23)
  %24 = load ptr, ptr %status.addr, align 8
  %25 = load i32, ptr %24, align 4
  %call27 = call noundef signext i8 @_ZL9U_FAILURE10UErrorCode(i32 noundef %25)
  %tobool28 = icmp ne i8 %call27, 0
  br i1 %tobool28, label %if.then29, label %if.end30

if.then29:                                        ; preds = %if.end26
  br label %if.end30

if.end30:                                         ; preds = %if.then29, %if.end26, %if.then25, %if.then20, %if.then16, %if.then12, %if.then8, %if.then4, %if.then
  ret void
}