; Function Attrs: mustprogress uwtable
define void @_ZN6icu_756number4impl17ParsedPatternInfo17consumeSubpatternER10UErrorCode(ptr nocapture noundef nonnull align 8 dereferenceable(433) %this, ptr nocapture noundef nonnull align 4 dereferenceable(4) %status) local_unnamed_addr #1 align 2 {
entry:
  tail call void @_ZN6icu_756number4impl17ParsedPatternInfo14consumePaddingE24UNumberFormatPadPositionR10UErrorCode(ptr noundef nonnull align 8 dereferenceable(433) %this, i32 noundef 0, ptr noundef nonnull align 4 dereferenceable(4) %status)
  %0 = load i32, ptr %status, align 4
  %cmp.i = icmp slt i32 %0, 1
  br i1 %cmp.i, label %if.end, label %if.end30

if.end:                                           ; preds = %entry
  %currentSubpattern = getelementptr inbounds i8, ptr %this, i64 424
  %1 = load ptr, ptr %currentSubpattern, align 8
  %prefixEndpoints = getelementptr inbounds i8, ptr %1, i64 144
  tail call void @_ZN6icu_756number4impl17ParsedPatternInfo12consumeAffixERNS1_9EndpointsER10UErrorCode(ptr noundef nonnull align 8 dereferenceable(433) %this, ptr noundef nonnull align 4 dereferenceable(8) %prefixEndpoints, ptr noundef nonnull align 4 dereferenceable(4) %status)
  %2 = load i32, ptr %status, align 4
  %cmp.i16 = icmp slt i32 %2, 1
  br i1 %cmp.i16, label %if.end5, label %if.end30

if.end5:                                          ; preds = %if.end
  tail call void @_ZN6icu_756number4impl17ParsedPatternInfo14consumePaddingE24UNumberFormatPadPositionR10UErrorCode(ptr noundef nonnull align 8 dereferenceable(433) %this, i32 noundef 1, ptr noundef nonnull align 4 dereferenceable(4) %status)
  %3 = load i32, ptr %status, align 4
  %cmp.i18 = icmp slt i32 %3, 1
  br i1 %cmp.i18, label %if.end9, label %if.end30

if.end9:                                          ; preds = %if.end5
  tail call void @_ZN6icu_756number4impl17ParsedPatternInfo13consumeFormatER10UErrorCode(ptr noundef nonnull align 8 dereferenceable(433) %this, ptr noundef nonnull align 4 dereferenceable(4) %status)
  %4 = load i32, ptr %status, align 4
  %cmp.i20 = icmp slt i32 %4, 1
  br i1 %cmp.i20, label %if.end13, label %if.end30

if.end13:                                         ; preds = %if.end9
  tail call void @_ZN6icu_756number4impl17ParsedPatternInfo15consumeExponentER10UErrorCode(ptr noundef nonnull align 8 dereferenceable(433) %this, ptr noundef nonnull align 4 dereferenceable(4) %status)
  %5 = load i32, ptr %status, align 4
  %cmp.i22 = icmp slt i32 %5, 1
  br i1 %cmp.i22, label %if.end17, label %if.end30

if.end17:                                         ; preds = %if.end13
  tail call void @_ZN6icu_756number4impl17ParsedPatternInfo14consumePaddingE24UNumberFormatPadPositionR10UErrorCode(ptr noundef nonnull align 8 dereferenceable(433) %this, i32 noundef 2, ptr noundef nonnull align 4 dereferenceable(4) %status)
  %6 = load i32, ptr %status, align 4
  %cmp.i24 = icmp slt i32 %6, 1
  br i1 %cmp.i24, label %if.end21, label %if.end30

if.end21:                                         ; preds = %if.end17
  %7 = load ptr, ptr %currentSubpattern, align 8
  %suffixEndpoints = getelementptr inbounds i8, ptr %7, i64 152
  tail call void @_ZN6icu_756number4impl17ParsedPatternInfo12consumeAffixERNS1_9EndpointsER10UErrorCode(ptr noundef nonnull align 8 dereferenceable(433) %this, ptr noundef nonnull align 4 dereferenceable(8) %suffixEndpoints, ptr noundef nonnull align 4 dereferenceable(4) %status)
  %8 = load i32, ptr %status, align 4
  %cmp.i26 = icmp slt i32 %8, 1
  br i1 %cmp.i26, label %if.end26, label %if.end30

if.end26:                                         ; preds = %if.end21
  tail call void @_ZN6icu_756number4impl17ParsedPatternInfo14consumePaddingE24UNumberFormatPadPositionR10UErrorCode(ptr noundef nonnull align 8 dereferenceable(433) %this, i32 noundef 3, ptr noundef nonnull align 4 dereferenceable(4) %status)
  br label %if.end30

if.end30:                                         ; preds = %if.end26, %if.end21, %if.end17, %if.end13, %if.end9, %if.end5, %if.end, %entry
  ret void
}